; Function Attrs: nounwind uwtable
define nonnull ptr @l_Nat_decLt___boxed(ptr noundef %0, ptr noundef %1) local_unnamed_addr #0 {
  %3 = ptrtoint ptr %0 to i64
  %4 = and i64 %3, 1
  %.not = icmp eq i64 %4, 0
  %5 = ptrtoint ptr %1 to i64
  %6 = and i64 %4, %5
  %or.cond.not = icmp eq i64 %6, 0
  br i1 %or.cond.not, label %.critedge.i, label %7, !prof !16

7:                                                ; preds = %2
  %8 = icmp ult ptr %0, %1
  br label %lean_nat_lt.exit

.critedge.i:                                      ; preds = %2
  %9 = tail call zeroext i1 @lean_nat_big_lt(ptr noundef %0, ptr noundef %1) #11
  br label %lean_nat_lt.exit

lean_nat_lt.exit:                                 ; preds = %7, %.critedge.i
  %.0.i = phi i1 [ %8, %7 ], [ %9, %.critedge.i ]
  %10 = and i64 %5, 1
  %.not10 = icmp eq i64 %10, 0
  br i1 %.not10, label %11, label %lean_dec.exit5

11:                                               ; preds = %lean_nat_lt.exit
  %12 = load i32, ptr %1, align 4, !tbaa !4
  %13 = icmp sgt i32 %12, 1
  br i1 %13, label %14, label %16, !prof !9

14:                                               ; preds = %11
  %15 = add nsw i32 %12, -1
  store i32 %15, ptr %1, align 4, !tbaa !4
  br label %lean_dec.exit5

16:                                               ; preds = %11
  %.not.i = icmp eq i32 %12, 0
  br i1 %.not.i, label %lean_dec.exit5, label %17

17:                                               ; preds = %16
  tail call void @lean_dec_ref_cold(ptr noundef nonnull %1) #11
  br label %lean_dec.exit5

lean_dec.exit5:                                   ; preds = %17, %16, %14, %lean_nat_lt.exit
  br i1 %.not, label %18, label %lean_dec.exit

18:                                               ; preds = %lean_dec.exit5
  %19 = load i32, ptr %0, align 4, !tbaa !4
  %20 = icmp sgt i32 %19, 1
  br i1 %20, label %21, label %23, !prof !9

21:                                               ; preds = %18
  %22 = add nsw i32 %19, -1
  store i32 %22, ptr %0, align 4, !tbaa !4
  br label %lean_dec.exit

23:                                               ; preds = %18
  %.not.i6 = icmp eq i32 %19, 0
  br i1 %.not.i6, label %lean_dec.exit, label %24

24:                                               ; preds = %23
  tail call void @lean_dec_ref_cold(ptr noundef nonnull %0) #11
  br label %lean_dec.exit

lean_dec.exit:                                    ; preds = %24, %23, %21, %lean_dec.exit5
  %25 = select i1 %.0.i, ptr inttoptr (i64 3 to ptr), ptr inttoptr (i64 1 to ptr)
  ret ptr %25
}